(dp0
S'tagprogress'
p1
(dp2
S'/home/zeltak/ZMX/M/Mountain Goats'
p3
(lp4
S'/home/zeltak/ZMX/M/Mountain Goats/Get Lonely'
p5
asS'/home/zeltak/Zmusic/A/Aerosmith'
p6
(lp7
S'/home/zeltak/Zmusic/A/Aerosmith/Aerosmith'
p8
asS'/home/zeltak/mounts/lraid/Download/transmission/completed/The Stranglers - IV - Rattus Norvegicus'
p9
(lp10
g9
asS'/home/zeltak/mreview/Shawn Smith Collection II'
p11
(lp12
S'/home/zeltak/mreview/Shawn Smith Collection II/2000 - Twilight as Played by the Twilight Singers'
p13
asS'/home/zeltak/Zmusic/B'
p14
(lp15
S'/home/zeltak/Zmusic/B/Beach Boys/ Pet Sounds'
p16
asS'/home/zeltak/mounts/lraid/Download/transmission/completed/The Stranglers - Greatest Hits 1977-1990 (FLAC)'
p17
(lp18
g17
asS'/home/zeltak/Zmusic/C'
p19
(lp20
S'/home/zeltak/Zmusic/C/Creedence Clearwater Revival/Chronicle Volume One'
p21
asS"/home/zeltak/mreview/Mastodon - Once More 'Round The Sun (2014)"
p22
(lp23
g22
asS'/home/zeltak/ZMX/N'
p24
(lp25
S'/home/zeltak/ZMX/N/Neil Young/zuma'
p26
asS'/home/zeltak/Zmusic/A/Alanis Morissette'
p27
(lp28
S'/home/zeltak/Zmusic/A/Alanis Morissette/Jagged Little Pill'
p29
asS'/home/zeltak/Zmusic/I/Iron Maiden'
p30
(lp31
S'/home/zeltak/Zmusic/I/Iron Maiden/Brave New World'
p32
asS'/home/zeltak/mounts/lraid/Download/transmission/completed/Chelsea Wolfe - Apokalypsis (2011)'
p33
(lp34
g33
ass.