(dp0
S'tagprogress'
p1
(dp2
S'/home/zeltak/ZMX/M/Mountain Goats'
p3
(lp4
S'/home/zeltak/ZMX/M/Mountain Goats/Get Lonely'
p5
asS'/home/zeltak/Zmusic/A/Aerosmith'
p6
(lp7
S'/home/zeltak/Zmusic/A/Aerosmith/Aerosmith'
p8
asS'/home/zeltak/mounts/lraid/Download/transmission/completed/The Stranglers - IV - Rattus Norvegicus'
p9
(lp10
g9
asS'/home/zeltak/Zmusic/B'
p11
(lp12
S'/home/zeltak/Zmusic/B/Beach Boys/ Pet Sounds'
p13
asS'/home/zeltak/mounts/lraid/Download/transmission/completed/The Stranglers - Greatest Hits 1977-1990 (FLAC)'
p14
(lp15
g14
asS'/home/zeltak/Zmusic/C'
p16
(lp17
S'/home/zeltak/Zmusic/C/Creedence Clearwater Revival/Chronicle Volume One'
p18
asS"/home/zeltak/mreview/Mastodon - Once More 'Round The Sun (2014)"
p19
(lp20
g19
asS'/home/zeltak/mounts/lraid/Download/transmission/completed/Chelsea Wolfe - Apokalypsis (2011)'
p21
(lp22
g21
asS'/home/zeltak/mreview/Shawn Smith Collection II'
p23
(lp24
S'/home/zeltak/mreview/Shawn Smith Collection II/2000 - Twilight as Played by the Twilight Singers'
p25
asS'/home/zeltak/Zmusic/A/Alanis Morissette'
p26
(lp27
S'/home/zeltak/Zmusic/A/Alanis Morissette/Jagged Little Pill'
p28
asS'/home/zeltak/Zmusic/I/Iron Maiden'
p29
(lp30
S'/home/zeltak/Zmusic/I/Iron Maiden/Brave New World'
p31
asS'/home/zeltak/ZMX/N'
p32
(lp33
S'/home/zeltak/ZMX/N/Neil Young/zuma'
p34
ass.